target datalayout = "e-m:e-p270:32:32-p271:32:32-p272:64:64-i64:64-i128:128-f80:128-n8:16:32:64-S128"
target triple = "x86_64-pc-linux-gnu"

%struct.WOLFSSL_BUFFER_INFO = type { ptr, i32 }
%struct.WOLFSSL = type <{ ptr, ptr, ptr, ptr, [48 x i8], [48 x i8], ptr, ptr, ptr, ptr, ptr, ptr, ptr, ptr, ptr, ptr, ptr, ptr, ptr, i32, [4 x i8], %struct.WOLFSSL_CIPHER, ptr, %struct.Ciphers, %struct.Ciphers, [8 x i8], %struct.Buffers, ptr, ptr, %struct.WOLFSSL_ALERT_HISTORY, %struct.WOLFSSL_ALERT, i32, i32, i32, i32, i32, i32, i32, i16, [2 x i8], i32, i8, %struct.RecordLayerHeader, %struct.MsgsReceived, %struct.ProtocolVersion, %struct.ProtocolVersion, %struct.CipherSpecs, [2 x i8], %struct.Keys, %struct.Options, ptr, i8, i8, i16, [10 x i16], i8, i8, i16, i16, [38 x i8], i32, i32, [4 x i8], ptr, i8, i8, [6 x i8], ptr, ptr, i16, i8, i8, i32, i8, [3 x i8], i32, %struct.OneTimeAuth, ptr }>
%struct.WOLFSSL_CIPHER = type { i8, i8, ptr }
%struct.Ciphers = type { ptr, ptr, ptr, ptr, i8, i8 }
%struct.Buffers = type { %struct.bufferStatic, %struct.bufferStatic, %struct.WOLFSSL_BUFFER_INFO, %struct.WOLFSSL_BUFFER_INFO, %struct.WOLFSSL_BUFFER_INFO, %struct.WOLFSSL_BUFFER_INFO, i32, i32, i8, i8, i8, i8, %struct.WOLFSSL_BUFFER_INFO, %struct.WOLFSSL_BUFFER_INFO, %struct.WOLFSSL_BUFFER_INFO, %struct.WOLFSSL_BUFFER_INFO, ptr, ptr, ptr, i8, i8, i32, i32, ptr, i32, [1 x ptr] }
%struct.bufferStatic = type { [5 x i8], ptr, i32, i32, i32, i8, i8 }
%struct.WOLFSSL_ALERT_HISTORY = type { %struct.WOLFSSL_ALERT, %struct.WOLFSSL_ALERT }
%struct.WOLFSSL_ALERT = type { i32, i32 }
%struct.RecordLayerHeader = type { i8, i8, i8, [2 x i8] }
%struct.MsgsReceived = type { i32 }
%struct.ProtocolVersion = type { i8, i8 }
%struct.CipherSpecs = type { i16, i16, i16, i16, i8, i8, i8, i8, i8, i8, i8, i8 }
%struct.Keys = type { [64 x i8], [64 x i8], [32 x i8], [32 x i8], [16 x i8], [16 x i8], [8 x i8], [12 x i8], [12 x i8], i32, i32, i32, i32, i32, i32, i8, i8, i8, i8 }
%struct.Options = type { i64, i64, i8, i8, i8, i8, i8, i8, i8, i8, i8, i8, i8, i8, i8, i8, i8, i8, i8, i8, i8, i8, i8, i16, i16, i16, i16, i16, i8 }
%struct.OneTimeAuth = type { ptr, i8 }

; Function Attrs: nounwind uwtable
define internal i32 @wolfssl_set_tmp_dh(ptr noundef %0, ptr noundef %1, i32 noundef %2, ptr noundef %3, i32 noundef %4) #0 {
  %6 = alloca ptr, align 8
  %7 = alloca ptr, align 8
  %8 = alloca i32, align 4
  %9 = alloca ptr, align 8
  %10 = alloca i32, align 4
  %11 = alloca i32, align 4
  %12 = alloca ptr, align 8
  %13 = alloca ptr, align 8
  store ptr %0, ptr %6, align 8, !tbaa !61
  store ptr %1, ptr %7, align 8, !tbaa !21
  store i32 %2, ptr %8, align 4, !tbaa !7
  store ptr %3, ptr %9, align 8, !tbaa !21
  store i32 %4, ptr %10, align 4, !tbaa !7
  call void @llvm.lifetime.start.p0(i64 4, ptr %11) #9
  store i32 1, ptr %11, align 4, !tbaa !7
  %14 = load i32, ptr %8, align 4, !tbaa !7
  %15 = trunc i32 %14 to i16
  %16 = zext i16 %15 to i32
  %17 = load ptr, ptr %6, align 8, !tbaa !61
  %18 = getelementptr inbounds nuw %struct.WOLFSSL, ptr %17, i32 0, i32 49
  %19 = getelementptr inbounds nuw %struct.Options, ptr %18, i32 0, i32 23
  %20 = load i16, ptr %19, align 2, !tbaa !175
  %21 = zext i16 %20 to i32
  %22 = icmp slt i32 %16, %21
  br i1 %22, label %33, label %23

23:                                               ; preds = %5
  %24 = load i32, ptr %8, align 4, !tbaa !7
  %25 = trunc i32 %24 to i16
  %26 = zext i16 %25 to i32
  %27 = load ptr, ptr %6, align 8, !tbaa !61
  %28 = getelementptr inbounds nuw %struct.WOLFSSL, ptr %27, i32 0, i32 49
  %29 = getelementptr inbounds nuw %struct.Options, ptr %28, i32 0, i32 24
  %30 = load i16, ptr %29, align 8, !tbaa !177
  %31 = zext i16 %30 to i32
  %32 = icmp sgt i32 %26, %31
  br i1 %32, label %33, label %34

33:                                               ; preds = %23, %5
  store i32 -401, ptr %11, align 4, !tbaa !7
  br label %34

34:                                               ; preds = %33, %23
  %35 = load i32, ptr %11, align 4, !tbaa !7
  %36 = icmp eq i32 %35, 1
  br i1 %36, label %37, label %48

37:                                               ; preds = %34
  %38 = load ptr, ptr %6, align 8, !tbaa !61
  %39 = getelementptr inbounds nuw %struct.WOLFSSL, ptr %38, i32 0, i32 49
  %40 = getelementptr inbounds nuw %struct.Options, ptr %39, i32 0, i32 1
  %41 = load i64, ptr %40, align 8
  %42 = lshr i64 %41, 4
  %43 = and i64 %42, 3
  %44 = trunc i64 %43 to i16
  %45 = zext i16 %44 to i32
  %46 = icmp eq i32 %45, 1
  br i1 %46, label %47, label %48

47:                                               ; preds = %37
  store i32 -344, ptr %11, align 4, !tbaa !7
  br label %48

48:                                               ; preds = %47, %37, %34
  %49 = load i32, ptr %11, align 4, !tbaa !7
  %50 = icmp eq i32 %49, 1
  br i1 %50, label %51, label %126

51:                                               ; preds = %48
  %52 = load ptr, ptr %6, align 8, !tbaa !61
  %53 = getelementptr inbounds nuw %struct.WOLFSSL, ptr %52, i32 0, i32 49
  %54 = getelementptr inbounds nuw %struct.Options, ptr %53, i32 0, i32 1
  %55 = load i64, ptr %54, align 8
  %56 = and i64 %55, -2251799813685249
  %57 = or i64 %56, 0
  store i64 %57, ptr %54, align 8
  %58 = load ptr, ptr %6, align 8, !tbaa !61
  %59 = getelementptr inbounds nuw %struct.WOLFSSL, ptr %58, i32 0, i32 49
  %60 = getelementptr inbounds nuw %struct.Options, ptr %59, i32 0, i32 1
  %61 = load i64, ptr %60, align 8
  %62 = and i64 %61, -1125899906842625
  %63 = or i64 %62, 1125899906842624
  store i64 %63, ptr %60, align 8
  %64 = load ptr, ptr %6, align 8, !tbaa !61
  %65 = getelementptr inbounds nuw %struct.WOLFSSL, ptr %64, i32 0, i32 26
  %66 = getelementptr inbounds nuw %struct.Buffers, ptr %65, i32 0, i32 11
  %67 = load i8, ptr %66, align 1, !tbaa !238
  %68 = icmp ne i8 %67, 0
  br i1 %68, label %69, label %96

69:                                               ; preds = %51
  br label %70

70:                                               ; preds = %69
  call void @llvm.lifetime.start.p0(i64 8, ptr %12) #9
  %71 = load ptr, ptr %6, align 8, !tbaa !61
  %72 = getelementptr inbounds nuw %struct.WOLFSSL, ptr %71, i32 0, i32 26
  %73 = getelementptr inbounds nuw %struct.Buffers, ptr %72, i32 0, i32 12
  %74 = getelementptr inbounds nuw %struct.WOLFSSL_BUFFER_INFO, ptr %73, i32 0, i32 0
  %75 = load ptr, ptr %74, align 16, !tbaa !239
  store ptr %75, ptr %12, align 8, !tbaa !3
  %76 = load ptr, ptr %12, align 8, !tbaa !3
  %77 = icmp ne ptr %76, null
  br i1 %77, label %78, label %80

78:                                               ; preds = %70
  %79 = load ptr, ptr %12, align 8, !tbaa !3
  call void @wolfSSL_Free(ptr noundef %79)
  br label %80

80:                                               ; preds = %78, %70
  call void @llvm.lifetime.end.p0(i64 8, ptr %12) #9
  br label %81

81:                                               ; preds = %80
  br label %82

82:                                               ; preds = %81
  br label %83

83:                                               ; preds = %82
  call void @llvm.lifetime.start.p0(i64 8, ptr %13) #9
  %84 = load ptr, ptr %6, align 8, !tbaa !61
  %85 = getelementptr inbounds nuw %struct.WOLFSSL, ptr %84, i32 0, i32 26
  %86 = getelementptr inbounds nuw %struct.Buffers, ptr %85, i32 0, i32 13
  %87 = getelementptr inbounds nuw %struct.WOLFSSL_BUFFER_INFO, ptr %86, i32 0, i32 0
  %88 = load ptr, ptr %87, align 16, !tbaa !240
  store ptr %88, ptr %13, align 8, !tbaa !3
  %89 = load ptr, ptr %13, align 8, !tbaa !3
  %90 = icmp ne ptr %89, null
  br i1 %90, label %91, label %93

91:                                               ; preds = %83
  %92 = load ptr, ptr %13, align 8, !tbaa !3
  call void @wolfSSL_Free(ptr noundef %92)
  br label %93

93:                                               ; preds = %91, %83
  call void @llvm.lifetime.end.p0(i64 8, ptr %13) #9
  br label %94

94:                                               ; preds = %93
  br label %95

95:                                               ; preds = %94
  br label %96

96:                                               ; preds = %95, %51
  %97 = load ptr, ptr %7, align 8, !tbaa !21
  %98 = load ptr, ptr %6, align 8, !tbaa !61
  %99 = getelementptr inbounds nuw %struct.WOLFSSL, ptr %98, i32 0, i32 26
  %100 = getelementptr inbounds nuw %struct.Buffers, ptr %99, i32 0, i32 12
  %101 = getelementptr inbounds nuw %struct.WOLFSSL_BUFFER_INFO, ptr %100, i32 0, i32 0
  store ptr %97, ptr %101, align 16, !tbaa !239
  %102 = load ptr, ptr %9, align 8, !tbaa !21
  %103 = load ptr, ptr %6, align 8, !tbaa !61
  %104 = getelementptr inbounds nuw %struct.WOLFSSL, ptr %103, i32 0, i32 26
  %105 = getelementptr inbounds nuw %struct.Buffers, ptr %104, i32 0, i32 13
  %106 = getelementptr inbounds nuw %struct.WOLFSSL_BUFFER_INFO, ptr %105, i32 0, i32 0
  store ptr %102, ptr %106, align 16, !tbaa !240
  %107 = load i32, ptr %8, align 4, !tbaa !7
  %108 = load ptr, ptr %6, align 8, !tbaa !61
  %109 = getelementptr inbounds nuw %struct.WOLFSSL, ptr %108, i32 0, i32 26
  %110 = getelementptr inbounds nuw %struct.Buffers, ptr %109, i32 0, i32 12
  %111 = getelementptr inbounds nuw %struct.WOLFSSL_BUFFER_INFO, ptr %110, i32 0, i32 1
  store i32 %107, ptr %111, align 8, !tbaa !241
  %112 = load i32, ptr %10, align 4, !tbaa !7
  %113 = load ptr, ptr %6, align 8, !tbaa !61
  %114 = getelementptr inbounds nuw %struct.WOLFSSL, ptr %113, i32 0, i32 26
  %115 = getelementptr inbounds nuw %struct.Buffers, ptr %114, i32 0, i32 13
  %116 = getelementptr inbounds nuw %struct.WOLFSSL_BUFFER_INFO, ptr %115, i32 0, i32 1
  store i32 %112, ptr %116, align 8, !tbaa !242
  %117 = load ptr, ptr %6, align 8, !tbaa !61
  %118 = getelementptr inbounds nuw %struct.WOLFSSL, ptr %117, i32 0, i32 26
  %119 = getelementptr inbounds nuw %struct.Buffers, ptr %118, i32 0, i32 11
  store i8 1, ptr %119, align 1, !tbaa !238
  %120 = load ptr, ptr %6, align 8, !tbaa !61
  %121 = getelementptr inbounds nuw %struct.WOLFSSL, ptr %120, i32 0, i32 49
  %122 = getelementptr inbounds nuw %struct.Options, ptr %121, i32 0, i32 1
  %123 = load i64, ptr %122, align 8
  %124 = and i64 %123, -33554433
  %125 = or i64 %124, 33554432
  store i64 %125, ptr %122, align 8
  br label %126

126:                                              ; preds = %96, %48
  %127 = load i32, ptr %11, align 4, !tbaa !7
  %128 = icmp eq i32 %127, 1
  br i1 %128, label %129, label %142

129:                                              ; preds = %126
  %130 = load ptr, ptr %6, align 8, !tbaa !61
  %131 = call i32 @AllocateSuites(ptr noundef %130)
  %132 = icmp ne i32 %131, 0
  br i1 %132, label %133, label %142

133:                                              ; preds = %129
  %134 = load ptr, ptr %6, align 8, !tbaa !61
  %135 = getelementptr inbounds nuw %struct.WOLFSSL, ptr %134, i32 0, i32 26
  %136 = getelementptr inbounds nuw %struct.Buffers, ptr %135, i32 0, i32 12
  %137 = getelementptr inbounds nuw %struct.WOLFSSL_BUFFER_INFO, ptr %136, i32 0, i32 0
  store ptr null, ptr %137, align 16, !tbaa !239
  %138 = load ptr, ptr %6, align 8, !tbaa !61
  %139 = getelementptr inbounds nuw %struct.WOLFSSL, ptr %138, i32 0, i32 26
  %140 = getelementptr inbounds nuw %struct.Buffers, ptr %139, i32 0, i32 13
  %141 = getelementptr inbounds nuw %struct.WOLFSSL_BUFFER_INFO, ptr %140, i32 0, i32 0
  store ptr null, ptr %141, align 16, !tbaa !240
  store i32 0, ptr %11, align 4, !tbaa !7
  br label %142

142:                                              ; preds = %133, %129, %126
  %143 = load i32, ptr %11, align 4, !tbaa !7
  %144 = icmp eq i32 %143, 1
  br i1 %144, label %145, label %199

145:                                              ; preds = %142
  %146 = load ptr, ptr %6, align 8, !tbaa !61
  %147 = getelementptr inbounds nuw %struct.WOLFSSL, ptr %146, i32 0, i32 1
  %148 = load ptr, ptr %147, align 8, !tbaa !200
  %149 = load ptr, ptr %6, align 8, !tbaa !61
  %150 = getelementptr inbounds nuw %struct.WOLFSSL, ptr %149, i32 0, i32 44
  %151 = load ptr, ptr %6, align 8, !tbaa !61
  %152 = getelementptr inbounds nuw %struct.WOLFSSL, ptr %151, i32 0, i32 26
  %153 = getelementptr inbounds nuw %struct.Buffers, ptr %152, i32 0, i32 21
  %154 = load i32, ptr %153, align 4, !tbaa !199
  %155 = load ptr, ptr %6, align 8, !tbaa !61
  %156 = getelementptr inbounds nuw %struct.WOLFSSL, ptr %155, i32 0, i32 49
  %157 = getelementptr inbounds nuw %struct.Options, ptr %156, i32 0, i32 1
  %158 = load i64, ptr %157, align 8
  %159 = lshr i64 %158, 25
  %160 = and i64 %159, 1
  %161 = trunc i64 %160 to i16
  %162 = load ptr, ptr %6, align 8, !tbaa !61
  %163 = getelementptr inbounds nuw %struct.WOLFSSL, ptr %162, i32 0, i32 49
  %164 = getelementptr inbounds nuw %struct.Options, ptr %163, i32 0, i32 1
  %165 = load i64, ptr %164, align 8
  %166 = lshr i64 %165, 26
  %167 = and i64 %166, 1
  %168 = trunc i64 %167 to i16
  %169 = load ptr, ptr %6, align 8, !tbaa !61
  %170 = getelementptr inbounds nuw %struct.WOLFSSL, ptr %169, i32 0, i32 49
  %171 = getelementptr inbounds nuw %struct.Options, ptr %170, i32 0, i32 1
  %172 = load i64, ptr %171, align 8
  %173 = lshr i64 %172, 24
  %174 = and i64 %173, 1
  %175 = trunc i64 %174 to i16
  %176 = load ptr, ptr %6, align 8, !tbaa !61
  %177 = getelementptr inbounds nuw %struct.WOLFSSL, ptr %176, i32 0, i32 49
  %178 = getelementptr inbounds nuw %struct.Options, ptr %177, i32 0, i32 1
  %179 = load i64, ptr %178, align 8
  %180 = lshr i64 %179, 27
  %181 = and i64 %180, 1
  %182 = trunc i64 %181 to i16
  %183 = load ptr, ptr %6, align 8, !tbaa !61
  %184 = getelementptr inbounds nuw %struct.WOLFSSL, ptr %183, i32 0, i32 49
  %185 = getelementptr inbounds nuw %struct.Options, ptr %184, i32 0, i32 1
  %186 = load i64, ptr %185, align 8
  %187 = lshr i64 %186, 43
  %188 = and i64 %187, 1
  %189 = trunc i64 %188 to i16
  %190 = load ptr, ptr %6, align 8, !tbaa !61
  %191 = getelementptr inbounds nuw %struct.WOLFSSL, ptr %190, i32 0, i32 49
  %192 = getelementptr inbounds nuw %struct.Options, ptr %191, i32 0, i32 1
  %193 = load i64, ptr %192, align 8
  %194 = lshr i64 %193, 4
  %195 = and i64 %194, 3
  %196 = trunc i64 %195 to i16
  %197 = zext i16 %196 to i32
  %198 = load i16, ptr %150, align 2
  call void @InitSuites(ptr noundef %148, i16 %198, i32 noundef %154, i16 noundef zeroext 1, i16 noundef zeroext 0, i16 noundef zeroext %161, i16 noundef zeroext %168, i16 noundef zeroext %175, i16 noundef zeroext 1, i16 noundef zeroext %182, i16 noundef zeroext %189, i16 noundef zeroext 1, i16 noundef zeroext 1, i16 noundef zeroext 1, i16 noundef zeroext 1, i32 noundef %197)
  br label %199

199:                                              ; preds = %145, %142
  %200 = load i32, ptr %11, align 4, !tbaa !7
  call void @llvm.lifetime.end.p0(i64 4, ptr %11) #9
  ret i32 %200
}