; Function Attrs: nounwind uwtable
define internal fastcc range(i32 -401, 2) i32 @wolfssl_set_tmp_dh(ptr noundef %0, ptr noundef %1, i32 noundef %2, ptr noundef %3, i32 noundef %4) unnamed_addr #0 {
  %6 = and i32 %2, 65535
  %7 = getelementptr inbounds nuw i8, ptr %0, i64 1054
  %8 = load i16, ptr %7, align 2, !tbaa !153
  %9 = zext i16 %8 to i32
  %10 = icmp samesign ult i32 %6, %9
  br i1 %10, label %.critedge.thread, label %11

11:                                               ; preds = %5
  %12 = getelementptr inbounds nuw i8, ptr %0, i64 1056
  %13 = load i16, ptr %12, align 8, !tbaa !155
  %14 = zext i16 %13 to i32
  %15 = icmp samesign ugt i32 %6, %14
  br i1 %15, label %.critedge.thread, label %16

16:                                               ; preds = %11
  %17 = getelementptr inbounds nuw i8, ptr %0, i64 1024
  %18 = load i64, ptr %17, align 8
  %19 = and i64 %18, 48
  %20 = icmp eq i64 %19, 16
  br i1 %20, label %.critedge.thread, label %21

21:                                               ; preds = %16
  %22 = and i64 %18, -3377699720527873
  %23 = or disjoint i64 %22, 1125899906842624
  store i64 %23, ptr %17, align 8
  %24 = getelementptr inbounds nuw i8, ptr %0, i64 491
  %25 = load i8, ptr %24, align 1, !tbaa !221
  %.not = icmp eq i8 %25, 0
  br i1 %.not, label %34, label %26

26:                                               ; preds = %21
  %27 = getelementptr inbounds nuw i8, ptr %0, i64 496
  %28 = load ptr, ptr %27, align 16, !tbaa !222
  %.not43 = icmp eq ptr %28, null
  br i1 %.not43, label %30, label %29

29:                                               ; preds = %26
  tail call void @wolfSSL_Free(ptr noundef nonnull %28) #22
  br label %30

30:                                               ; preds = %29, %26
  %31 = getelementptr inbounds nuw i8, ptr %0, i64 512
  %32 = load ptr, ptr %31, align 16, !tbaa !223
  %.not44 = icmp eq ptr %32, null
  br i1 %.not44, label %34, label %33

33:                                               ; preds = %30
  tail call void @wolfSSL_Free(ptr noundef nonnull %32) #22
  br label %34

34:                                               ; preds = %21, %33, %30
  %35 = getelementptr inbounds nuw i8, ptr %0, i64 496
  store ptr %1, ptr %35, align 16, !tbaa !222
  %36 = getelementptr inbounds nuw i8, ptr %0, i64 512
  store ptr %3, ptr %36, align 16, !tbaa !223
  %37 = getelementptr inbounds nuw i8, ptr %0, i64 504
  store i32 %2, ptr %37, align 8, !tbaa !224
  %38 = getelementptr inbounds nuw i8, ptr %0, i64 520
  store i32 %4, ptr %38, align 8, !tbaa !225
  store i8 1, ptr %24, align 1, !tbaa !221
  %39 = load i64, ptr %17, align 8
  %40 = or i64 %39, 33554432
  store i64 %40, ptr %17, align 8
  %41 = tail call i32 @AllocateSuites(ptr noundef nonnull %0) #22
  %.not45 = icmp eq i32 %41, 0
  br i1 %.not45, label %.critedge, label %42

42:                                               ; preds = %34
  store ptr null, ptr %35, align 16, !tbaa !222
  store ptr null, ptr %36, align 16, !tbaa !223
  br label %.critedge.thread

.critedge:                                        ; preds = %34
  %43 = getelementptr inbounds nuw i8, ptr %0, i64 8
  %44 = load ptr, ptr %43, align 8, !tbaa !176
  %45 = getelementptr inbounds nuw i8, ptr %0, i64 710
  %46 = getelementptr inbounds nuw i8, ptr %0, i64 588
  %47 = load i32, ptr %46, align 4, !tbaa !175
  %48 = load i64, ptr %17, align 8
  %49 = lshr i64 %48, 25
  %50 = trunc i64 %49 to i16
  %51 = and i16 %50, 1
  %52 = lshr i64 %48, 26
  %53 = trunc i64 %52 to i16
  %54 = and i16 %53, 1
  %55 = lshr i64 %48, 24
  %56 = trunc i64 %55 to i16
  %57 = and i16 %56, 1
  %58 = lshr i64 %48, 27
  %59 = trunc i64 %58 to i16
  %60 = and i16 %59, 1
  %61 = lshr i64 %48, 43
  %62 = trunc i64 %61 to i16
  %63 = and i16 %62, 1
  %64 = trunc i64 %48 to i32
  %65 = lshr i32 %64, 4
  %66 = and i32 %65, 3
  %67 = load i16, ptr %45, align 2
  tail call void @InitSuites(ptr noundef %44, i16 %67, i32 noundef %47, i16 noundef zeroext 1, i16 noundef zeroext 0, i16 noundef zeroext %51, i16 noundef zeroext %54, i16 noundef zeroext %57, i16 noundef zeroext 1, i16 noundef zeroext %60, i16 noundef zeroext %63, i16 noundef zeroext 1, i16 noundef zeroext 1, i16 noundef zeroext 1, i16 noundef zeroext 1, i32 noundef %66) #22
  br label %.critedge.thread

.critedge.thread:                                 ; preds = %16, %11, %5, %42, %.critedge
  %.250 = phi i32 [ 1, %.critedge ], [ 0, %42 ], [ -401, %11 ], [ -401, %5 ], [ -344, %16 ]
  ret i32 %.250
}